target datalayout = "e-m:e-p270:32:32-p271:32:32-p272:64:64-i64:64-i128:128-f80:128-n8:16:32:64-S128"
target triple = "x86_64-pc-linux-gnu"

%struct.FunctionCallInfoBaseData = type { ptr, ptr, ptr, i32, i8, i16, [0 x %struct.NullableDatum] }
%struct.NullableDatum = type { i64, i8 }
%struct.FmgrInfo = type { ptr, i32, i16, i8, i8, i8, ptr, ptr, ptr }
%struct.TypeCacheEntry = type { i32, i32, i16, i8, i8, i8, i8, i32, i32, i32, i32, i32, i32, i32, i32, i32, i32, i32, i32, i32, i32, %struct.FmgrInfo, %struct.FmgrInfo, %struct.FmgrInfo, %struct.FmgrInfo, ptr, i64, ptr, i32, i32, %struct.FmgrInfo, %struct.FmgrInfo, %struct.FmgrInfo, ptr, i32, i32, ptr, i32, ptr, ptr }
%struct.MultirangeType = type { i32, i32, i32 }
%struct.RangeBound = type { i64, i8, i8, i8 }

@.str.2 = private unnamed_addr constant [18 x i8] c"multirangetypes.c\00", align 1
@.str.9 = private unnamed_addr constant [33 x i8] c"type %u is not a multirange type\00", align 1
@__func__.multirange_get_typcache = private unnamed_addr constant [24 x i8] c"multirange_get_typcache\00", align 1

; Function Attrs: inlinehint nounwind uwtable
define internal ptr @DatumGetPointer(i64 noundef %0) #2 {
  %2 = alloca i64, align 8
  store i64 %0, ptr %2, align 8
  %3 = load i64, ptr %2, align 8
  %4 = inttoptr i64 %3 to ptr
  ret ptr %4
}

; Function Attrs: inlinehint nounwind uwtable
define internal i64 @BoolGetDatum(i1 noundef zeroext %0) #2 {
  %2 = alloca i8, align 1
  %3 = zext i1 %0 to i8
  store i8 %3, ptr %2, align 1
  %4 = load i8, ptr %2, align 1, !range !16, !noundef !17
  %5 = trunc i8 %4 to i1
  %6 = select i1 %5, i32 1, i32 0
  %7 = sext i32 %6 to i64
  ret i64 %7
}

; Function Attrs: nounwind uwtable
define dso_local ptr @multirange_get_typcache(ptr noundef %0, i32 noundef %1) #0 {
  %3 = alloca ptr, align 8
  %4 = alloca i32, align 4
  %5 = alloca ptr, align 8
  store ptr %0, ptr %3, align 8
  store i32 %1, ptr %4, align 4
  call void @llvm.lifetime.start.p0(i64 8, ptr %5) #9
  %6 = load ptr, ptr %3, align 8
  %7 = getelementptr inbounds nuw %struct.FunctionCallInfoBaseData, ptr %6, i32 0, i32 0
  %8 = load ptr, ptr %7, align 8
  %9 = getelementptr inbounds nuw %struct.FmgrInfo, ptr %8, i32 0, i32 6
  %10 = load ptr, ptr %9, align 8
  store ptr %10, ptr %5, align 8
  %11 = load ptr, ptr %5, align 8
  %12 = icmp eq ptr %11, null
  br i1 %12, label %19, label %13

13:                                               ; preds = %2
  %14 = load ptr, ptr %5, align 8
  %15 = getelementptr inbounds nuw %struct.TypeCacheEntry, ptr %14, i32 0, i32 0
  %16 = load i32, ptr %15, align 8
  %17 = load i32, ptr %4, align 4
  %18 = icmp ne i32 %16, %17
  br i1 %18, label %19, label %44

19:                                               ; preds = %13, %2
  %20 = load i32, ptr %4, align 4
  %21 = call ptr @lookup_type_cache(i32 noundef %20, i32 noundef 65536)
  store ptr %21, ptr %5, align 8
  %22 = load ptr, ptr %5, align 8
  %23 = getelementptr inbounds nuw %struct.TypeCacheEntry, ptr %22, i32 0, i32 33
  %24 = load ptr, ptr %23, align 8
  %25 = icmp eq ptr %24, null
  br i1 %25, label %26, label %38

26:                                               ; preds = %19
  br label %27

27:                                               ; preds = %26
  br i1 true, label %28, label %30

28:                                               ; preds = %27
  %29 = call zeroext i1 @errstart_cold(i32 noundef 21, ptr noundef null) #11
  br i1 %29, label %32, label %35

30:                                               ; preds = %27
  %31 = call zeroext i1 @errstart(i32 noundef 21, ptr noundef null)
  br i1 %31, label %32, label %35

32:                                               ; preds = %30, %28
  %33 = load i32, ptr %4, align 4
  %34 = call i32 (ptr, ...) @errmsg_internal(ptr noundef @.str.9, i32 noundef %33)
  call void @errfinish(ptr noundef @.str.2, i32 noundef 557, ptr noundef @__func__.multirange_get_typcache)
  br label %35

35:                                               ; preds = %32, %30, %28
  unreachable

36:                                               ; No predecessors!
  br label %37

37:                                               ; preds = %36
  br label %38

38:                                               ; preds = %37, %19
  %39 = load ptr, ptr %5, align 8
  %40 = load ptr, ptr %3, align 8
  %41 = getelementptr inbounds nuw %struct.FunctionCallInfoBaseData, ptr %40, i32 0, i32 0
  %42 = load ptr, ptr %41, align 8
  %43 = getelementptr inbounds nuw %struct.FmgrInfo, ptr %42, i32 0, i32 6
  store ptr %39, ptr %43, align 8
  br label %44

44:                                               ; preds = %38, %13
  %45 = load ptr, ptr %5, align 8
  call void @llvm.lifetime.end.p0(i64 8, ptr %5) #9
  ret ptr %45
}

; Function Attrs: inlinehint nounwind uwtable
define internal ptr @DatumGetMultirangeTypeP(i64 noundef %0) #2 {
  %2 = alloca i64, align 8
  store i64 %0, ptr %2, align 8
  %3 = load i64, ptr %2, align 8
  %4 = call ptr @DatumGetPointer(i64 noundef %3)
  %5 = call ptr @pg_detoast_datum(ptr noundef %4)
  ret ptr %5
}

; Function Attrs: nounwind uwtable
define dso_local i64 @multirange_adjacent_multirange(ptr noundef %0) #0 {
  %2 = alloca i64, align 8
  %3 = alloca ptr, align 8
  %4 = alloca ptr, align 8
  %5 = alloca ptr, align 8
  %6 = alloca ptr, align 8
  %7 = alloca i32, align 4
  %8 = alloca i32, align 4
  %9 = alloca %struct.RangeBound, align 8
  %10 = alloca %struct.RangeBound, align 8
  %11 = alloca %struct.RangeBound, align 8
  %12 = alloca %struct.RangeBound, align 8
  %13 = alloca i32, align 4
  store ptr %0, ptr %3, align 8
  call void @llvm.lifetime.start.p0(i64 8, ptr %4) #9
  %14 = load ptr, ptr %3, align 8
  %15 = getelementptr inbounds nuw %struct.FunctionCallInfoBaseData, ptr %14, i32 0, i32 6
  %16 = getelementptr inbounds [0 x %struct.NullableDatum], ptr %15, i64 0, i64 0
  %17 = getelementptr inbounds nuw %struct.NullableDatum, ptr %16, i32 0, i32 0
  %18 = load i64, ptr %17, align 8
  %19 = call ptr @DatumGetMultirangeTypeP(i64 noundef %18)
  store ptr %19, ptr %4, align 8
  call void @llvm.lifetime.start.p0(i64 8, ptr %5) #9
  %20 = load ptr, ptr %3, align 8
  %21 = getelementptr inbounds nuw %struct.FunctionCallInfoBaseData, ptr %20, i32 0, i32 6
  %22 = getelementptr inbounds [0 x %struct.NullableDatum], ptr %21, i64 0, i64 1
  %23 = getelementptr inbounds nuw %struct.NullableDatum, ptr %22, i32 0, i32 0
  %24 = load i64, ptr %23, align 8
  %25 = call ptr @DatumGetMultirangeTypeP(i64 noundef %24)
  store ptr %25, ptr %5, align 8
  call void @llvm.lifetime.start.p0(i64 8, ptr %6) #9
  call void @llvm.lifetime.start.p0(i64 4, ptr %7) #9
  call void @llvm.lifetime.start.p0(i64 4, ptr %8) #9
  call void @llvm.lifetime.start.p0(i64 16, ptr %9) #9
  call void @llvm.lifetime.start.p0(i64 16, ptr %10) #9
  call void @llvm.lifetime.start.p0(i64 16, ptr %11) #9
  call void @llvm.lifetime.start.p0(i64 16, ptr %12) #9
  %26 = load ptr, ptr %4, align 8
  %27 = getelementptr inbounds nuw %struct.MultirangeType, ptr %26, i32 0, i32 2
  %28 = load i32, ptr %27, align 4
  %29 = icmp eq i32 %28, 0
  br i1 %29, label %35, label %30

30:                                               ; preds = %1
  %31 = load ptr, ptr %5, align 8
  %32 = getelementptr inbounds nuw %struct.MultirangeType, ptr %31, i32 0, i32 2
  %33 = load i32, ptr %32, align 4
  %34 = icmp eq i32 %33, 0
  br i1 %34, label %35, label %36

35:                                               ; preds = %30, %1
  store i64 0, ptr %2, align 8
  store i32 1, ptr %13, align 4
  br label %107

36:                                               ; preds = %30
  %37 = load ptr, ptr %3, align 8
  %38 = load ptr, ptr %4, align 8
  %39 = getelementptr inbounds nuw %struct.MultirangeType, ptr %38, i32 0, i32 1
  %40 = load i32, ptr %39, align 4
  %41 = call ptr @multirange_get_typcache(ptr noundef %37, i32 noundef %40)
  store ptr %41, ptr %6, align 8
  %42 = load ptr, ptr %4, align 8
  %43 = getelementptr inbounds nuw %struct.MultirangeType, ptr %42, i32 0, i32 2
  %44 = load i32, ptr %43, align 4
  store i32 %44, ptr %7, align 4
  %45 = load ptr, ptr %5, align 8
  %46 = getelementptr inbounds nuw %struct.MultirangeType, ptr %45, i32 0, i32 2
  %47 = load i32, ptr %46, align 4
  store i32 %47, ptr %8, align 4
  %48 = load ptr, ptr %6, align 8
  %49 = getelementptr inbounds nuw %struct.TypeCacheEntry, ptr %48, i32 0, i32 33
  %50 = load ptr, ptr %49, align 8
  %51 = load ptr, ptr %4, align 8
  %52 = load i32, ptr %7, align 4
  %53 = sub i32 %52, 1
  call void @multirange_get_bounds(ptr noundef %50, ptr noundef %51, i32 noundef %53, ptr noundef %9, ptr noundef %10)
  %54 = load ptr, ptr %6, align 8
  %55 = getelementptr inbounds nuw %struct.TypeCacheEntry, ptr %54, i32 0, i32 33
  %56 = load ptr, ptr %55, align 8
  %57 = load ptr, ptr %5, align 8
  call void @multirange_get_bounds(ptr noundef %56, ptr noundef %57, i32 noundef 0, ptr noundef %11, ptr noundef %12)
  %58 = load ptr, ptr %6, align 8
  %59 = getelementptr inbounds nuw %struct.TypeCacheEntry, ptr %58, i32 0, i32 33
  %60 = load ptr, ptr %59, align 8
  %61 = getelementptr inbounds nuw { i64, i64 }, ptr %10, i32 0, i32 0
  %62 = load i64, ptr %61, align 8
  %63 = getelementptr inbounds nuw { i64, i64 }, ptr %10, i32 0, i32 1
  %64 = load i64, ptr %63, align 8
  %65 = getelementptr inbounds nuw { i64, i64 }, ptr %11, i32 0, i32 0
  %66 = load i64, ptr %65, align 8
  %67 = getelementptr inbounds nuw { i64, i64 }, ptr %11, i32 0, i32 1
  %68 = load i64, ptr %67, align 8
  %69 = call zeroext i1 @bounds_adjacent(ptr noundef %60, i64 %62, i64 %64, i64 %66, i64 %68)
  br i1 %69, label %70, label %72

70:                                               ; preds = %36
  %71 = call i64 @BoolGetDatum(i1 noundef zeroext true)
  store i64 %71, ptr %2, align 8
  store i32 1, ptr %13, align 4
  br label %107

72:                                               ; preds = %36
  %73 = load i32, ptr %7, align 4
  %74 = icmp sgt i32 %73, 1
  br i1 %74, label %75, label %80

75:                                               ; preds = %72
  %76 = load ptr, ptr %6, align 8
  %77 = getelementptr inbounds nuw %struct.TypeCacheEntry, ptr %76, i32 0, i32 33
  %78 = load ptr, ptr %77, align 8
  %79 = load ptr, ptr %4, align 8
  call void @multirange_get_bounds(ptr noundef %78, ptr noundef %79, i32 noundef 0, ptr noundef %9, ptr noundef %10)
  br label %80

80:                                               ; preds = %75, %72
  %81 = load i32, ptr %8, align 4
  %82 = icmp sgt i32 %81, 1
  br i1 %82, label %83, label %90

83:                                               ; preds = %80
  %84 = load ptr, ptr %6, align 8
  %85 = getelementptr inbounds nuw %struct.TypeCacheEntry, ptr %84, i32 0, i32 33
  %86 = load ptr, ptr %85, align 8
  %87 = load ptr, ptr %5, align 8
  %88 = load i32, ptr %8, align 4
  %89 = sub i32 %88, 1
  call void @multirange_get_bounds(ptr noundef %86, ptr noundef %87, i32 noundef %89, ptr noundef %11, ptr noundef %12)
  br label %90

90:                                               ; preds = %83, %80
  %91 = load ptr, ptr %6, align 8
  %92 = getelementptr inbounds nuw %struct.TypeCacheEntry, ptr %91, i32 0, i32 33
  %93 = load ptr, ptr %92, align 8
  %94 = getelementptr inbounds nuw { i64, i64 }, ptr %12, i32 0, i32 0
  %95 = load i64, ptr %94, align 8
  %96 = getelementptr inbounds nuw { i64, i64 }, ptr %12, i32 0, i32 1
  %97 = load i64, ptr %96, align 8
  %98 = getelementptr inbounds nuw { i64, i64 }, ptr %9, i32 0, i32 0
  %99 = load i64, ptr %98, align 8
  %100 = getelementptr inbounds nuw { i64, i64 }, ptr %9, i32 0, i32 1
  %101 = load i64, ptr %100, align 8
  %102 = call zeroext i1 @bounds_adjacent(ptr noundef %93, i64 %95, i64 %97, i64 %99, i64 %101)
  br i1 %102, label %103, label %105

103:                                              ; preds = %90
  %104 = call i64 @BoolGetDatum(i1 noundef zeroext true)
  store i64 %104, ptr %2, align 8
  store i32 1, ptr %13, align 4
  br label %107

105:                                              ; preds = %90
  %106 = call i64 @BoolGetDatum(i1 noundef zeroext false)
  store i64 %106, ptr %2, align 8
  store i32 1, ptr %13, align 4
  br label %107

107:                                              ; preds = %105, %103, %70, %35
  call void @llvm.lifetime.end.p0(i64 16, ptr %12) #9
  call void @llvm.lifetime.end.p0(i64 16, ptr %11) #9
  call void @llvm.lifetime.end.p0(i64 16, ptr %10) #9
  call void @llvm.lifetime.end.p0(i64 16, ptr %9) #9
  call void @llvm.lifetime.end.p0(i64 4, ptr %8) #9
  call void @llvm.lifetime.end.p0(i64 4, ptr %7) #9
  call void @llvm.lifetime.end.p0(i64 8, ptr %6) #9
  call void @llvm.lifetime.end.p0(i64 8, ptr %5) #9
  call void @llvm.lifetime.end.p0(i64 8, ptr %4) #9
  %108 = load i64, ptr %2, align 8
  ret i64 %108
}