; Function Attrs: nounwind uwtable
define dso_local range(i64 0, 2) i64 @multirange_adjacent_multirange(ptr noundef readonly captures(none) %0) local_unnamed_addr #0 {
  %2 = alloca %struct.RangeBound, align 8
  %3 = alloca %struct.RangeBound, align 8
  %4 = alloca %struct.RangeBound, align 8
  %5 = alloca %struct.RangeBound, align 8
  %6 = getelementptr inbounds nuw i8, ptr %0, i64 32
  %7 = load i64, ptr %6, align 8
  %8 = inttoptr i64 %7 to ptr
  %9 = tail call ptr @pg_detoast_datum(ptr noundef %8) #11
  %10 = getelementptr inbounds nuw i8, ptr %0, i64 48
  %11 = load i64, ptr %10, align 8
  %12 = inttoptr i64 %11 to ptr
  %13 = tail call ptr @pg_detoast_datum(ptr noundef %12) #11
  call void @llvm.lifetime.start.p0(i64 16, ptr nonnull %2) #11
  call void @llvm.lifetime.start.p0(i64 16, ptr nonnull %3) #11
  call void @llvm.lifetime.start.p0(i64 16, ptr nonnull %4) #11
  call void @llvm.lifetime.start.p0(i64 16, ptr nonnull %5) #11
  %14 = getelementptr inbounds nuw i8, ptr %9, i64 8
  %15 = load i32, ptr %14, align 4
  %16 = icmp eq i32 %15, 0
  br i1 %16, label %73, label %17

17:                                               ; preds = %1
  %18 = getelementptr inbounds nuw i8, ptr %13, i64 8
  %19 = load i32, ptr %18, align 4
  %20 = icmp eq i32 %19, 0
  br i1 %20, label %73, label %21

21:                                               ; preds = %17
  %22 = getelementptr inbounds nuw i8, ptr %9, i64 4
  %23 = load i32, ptr %22, align 4
  %24 = load ptr, ptr %0, align 8
  %25 = getelementptr inbounds nuw i8, ptr %24, i64 24
  %26 = load ptr, ptr %25, align 8
  %27 = icmp eq ptr %26, null
  br i1 %27, label %30, label %28

28:                                               ; preds = %21
  %29 = load i32, ptr %26, align 8
  %.not.i = icmp eq i32 %29, %23
  br i1 %.not.i, label %multirange_get_typcache.exit, label %30

30:                                               ; preds = %28, %21
  %31 = tail call ptr @lookup_type_cache(i32 noundef %23, i32 noundef 65536) #11
  %32 = getelementptr inbounds nuw i8, ptr %31, i64 440
  %33 = load ptr, ptr %32, align 8
  %34 = icmp eq ptr %33, null
  br i1 %34, label %35, label %38

35:                                               ; preds = %30
  %36 = tail call zeroext i1 @errstart_cold(i32 noundef 21, ptr noundef null) #13
  tail call void @llvm.assume(i1 %36)
  %37 = tail call i32 (ptr, ...) @errmsg_internal(ptr noundef nonnull @.str.9, i32 noundef %23) #11
  tail call void @errfinish(ptr noundef nonnull @.str.2, i32 noundef 557, ptr noundef nonnull @__func__.multirange_get_typcache) #11
  unreachable

38:                                               ; preds = %30
  %39 = load ptr, ptr %0, align 8
  %40 = getelementptr inbounds nuw i8, ptr %39, i64 24
  store ptr %31, ptr %40, align 8
  %.pre = load i32, ptr %14, align 4
  %.pre23 = load i32, ptr %18, align 4
  br label %multirange_get_typcache.exit

multirange_get_typcache.exit:                     ; preds = %28, %38
  %41 = phi i32 [ %.pre23, %38 ], [ %19, %28 ]
  %42 = phi i32 [ %.pre, %38 ], [ %15, %28 ]
  %.0.i = phi ptr [ %31, %38 ], [ %26, %28 ]
  %43 = getelementptr inbounds nuw i8, ptr %.0.i, i64 440
  %44 = load ptr, ptr %43, align 8
  %45 = add i32 %42, -1
  call void @multirange_get_bounds(ptr noundef %44, ptr noundef nonnull %9, i32 noundef %45, ptr noundef nonnull %2, ptr noundef nonnull %3)
  %46 = load ptr, ptr %43, align 8
  call void @multirange_get_bounds(ptr noundef %46, ptr noundef nonnull %13, i32 noundef 0, ptr noundef nonnull %4, ptr noundef nonnull %5)
  %47 = load ptr, ptr %43, align 8
  %48 = load i64, ptr %3, align 8
  %49 = getelementptr inbounds nuw i8, ptr %3, i64 8
  %50 = load i64, ptr %49, align 8
  %51 = load i64, ptr %4, align 8
  %52 = getelementptr inbounds nuw i8, ptr %4, i64 8
  %53 = load i64, ptr %52, align 8
  %54 = tail call zeroext i1 @bounds_adjacent(ptr noundef %47, i64 %48, i64 %50, i64 %51, i64 %53) #11
  br i1 %54, label %73, label %55

55:                                               ; preds = %multirange_get_typcache.exit
  %56 = icmp sgt i32 %42, 1
  br i1 %56, label %57, label %59

57:                                               ; preds = %55
  %58 = load ptr, ptr %43, align 8
  call void @multirange_get_bounds(ptr noundef %58, ptr noundef nonnull %9, i32 noundef 0, ptr noundef nonnull %2, ptr noundef nonnull %3)
  br label %59

59:                                               ; preds = %57, %55
  %60 = icmp sgt i32 %41, 1
  br i1 %60, label %61, label %64

61:                                               ; preds = %59
  %62 = load ptr, ptr %43, align 8
  %63 = add nsw i32 %41, -1
  call void @multirange_get_bounds(ptr noundef %62, ptr noundef nonnull %13, i32 noundef %63, ptr noundef nonnull %4, ptr noundef nonnull %5)
  br label %64

64:                                               ; preds = %61, %59
  %65 = load ptr, ptr %43, align 8
  %66 = load i64, ptr %5, align 8
  %67 = getelementptr inbounds nuw i8, ptr %5, i64 8
  %68 = load i64, ptr %67, align 8
  %69 = load i64, ptr %2, align 8
  %70 = getelementptr inbounds nuw i8, ptr %2, i64 8
  %71 = load i64, ptr %70, align 8
  %72 = tail call zeroext i1 @bounds_adjacent(ptr noundef %65, i64 %66, i64 %68, i64 %69, i64 %71) #11
  %spec.select = zext i1 %72 to i64
  br label %73

73:                                               ; preds = %64, %multirange_get_typcache.exit, %1, %17
  %.0 = phi i64 [ 0, %17 ], [ 0, %1 ], [ 1, %multirange_get_typcache.exit ], [ %spec.select, %64 ]
  call void @llvm.lifetime.end.p0(i64 16, ptr nonnull %5) #11
  call void @llvm.lifetime.end.p0(i64 16, ptr nonnull %4) #11
  call void @llvm.lifetime.end.p0(i64 16, ptr nonnull %3) #11
  call void @llvm.lifetime.end.p0(i64 16, ptr nonnull %2) #11
  ret i64 %.0
}